target datalayout = "e-m:e-p270:32:32-p271:32:32-p272:64:64-i64:64-i128:128-f80:128-n8:16:32:64-S128"
target triple = "x86_64-pc-linux-gnu"

%struct.jpeg_decompress_struct = type { ptr, ptr, ptr, ptr, i32, i32, ptr, i32, i32, i32, i32, i32, i32, i32, double, i32, i32, i32, i32, i32, i32, i32, i32, i32, i32, i32, i32, i32, i32, i32, i32, i32, i32, ptr, i32, i32, i32, i32, i32, ptr, [4 x ptr], [4 x ptr], [4 x ptr], i32, ptr, i32, i32, [16 x i8], [16 x i8], [16 x i8], i32, i32, i8, i8, i8, i16, i16, i32, i8, i32, ptr, i32, i32, i32, i32, ptr, i32, [4 x ptr], i32, i32, i32, [10 x i32], i32, i32, i32, i32, i32, ptr, ptr, ptr, ptr, ptr, ptr, ptr, ptr, ptr, ptr, ptr }
%struct.my_cquantizer = type { %struct.jpeg_color_quantizer, ptr, i32, ptr, i32, [4 x i32], i32, [4 x ptr], [4 x ptr], i32 }
%struct.jpeg_color_quantizer = type { ptr, ptr, ptr, ptr }

; Function Attrs: nounwind uwtable
define internal void @quantize3_ord_dither(ptr noundef %0, ptr noundef %1, ptr noundef %2, i32 noundef %3) #0 {
  %5 = alloca ptr, align 8
  %6 = alloca ptr, align 8
  %7 = alloca ptr, align 8
  %8 = alloca i32, align 4
  %9 = alloca ptr, align 8
  %10 = alloca i32, align 4
  %11 = alloca ptr, align 8
  %12 = alloca ptr, align 8
  %13 = alloca ptr, align 8
  %14 = alloca ptr, align 8
  %15 = alloca ptr, align 8
  %16 = alloca ptr, align 8
  %17 = alloca ptr, align 8
  %18 = alloca ptr, align 8
  %19 = alloca i32, align 4
  %20 = alloca i32, align 4
  %21 = alloca i32, align 4
  %22 = alloca i32, align 4
  %23 = alloca i32, align 4
  store ptr %0, ptr %5, align 8
  store ptr %1, ptr %6, align 8
  store ptr %2, ptr %7, align 8
  store i32 %3, ptr %8, align 4
  %24 = load ptr, ptr %5, align 8
  %25 = getelementptr inbounds %struct.jpeg_decompress_struct, ptr %24, i32 0, i32 87
  %26 = load ptr, ptr %25, align 8
  store ptr %26, ptr %9, align 8
  %27 = load ptr, ptr %9, align 8
  %28 = getelementptr inbounds %struct.my_cquantizer, ptr %27, i32 0, i32 3
  %29 = load ptr, ptr %28, align 8
  %30 = getelementptr inbounds ptr, ptr %29, i64 0
  %31 = load ptr, ptr %30, align 8
  store ptr %31, ptr %13, align 8
  %32 = load ptr, ptr %9, align 8
  %33 = getelementptr inbounds %struct.my_cquantizer, ptr %32, i32 0, i32 3
  %34 = load ptr, ptr %33, align 8
  %35 = getelementptr inbounds ptr, ptr %34, i64 1
  %36 = load ptr, ptr %35, align 8
  store ptr %36, ptr %14, align 8
  %37 = load ptr, ptr %9, align 8
  %38 = getelementptr inbounds %struct.my_cquantizer, ptr %37, i32 0, i32 3
  %39 = load ptr, ptr %38, align 8
  %40 = getelementptr inbounds ptr, ptr %39, i64 2
  %41 = load ptr, ptr %40, align 8
  store ptr %41, ptr %15, align 8
  %42 = load ptr, ptr %5, align 8
  %43 = getelementptr inbounds %struct.jpeg_decompress_struct, ptr %42, i32 0, i32 27
  %44 = load i32, ptr %43, align 8
  store i32 %44, ptr %23, align 4
  store i32 0, ptr %21, align 4
  br label %45

45:                                               ; preds = %158, %4
  %46 = load i32, ptr %21, align 4
  %47 = load i32, ptr %8, align 4
  %48 = icmp slt i32 %46, %47
  br i1 %48, label %49, label %161

49:                                               ; preds = %45
  %50 = load ptr, ptr %9, align 8
  %51 = getelementptr inbounds %struct.my_cquantizer, ptr %50, i32 0, i32 6
  %52 = load i32, ptr %51, align 4
  store i32 %52, ptr %19, align 4
  %53 = load ptr, ptr %6, align 8
  %54 = load i32, ptr %21, align 4
  %55 = sext i32 %54 to i64
  %56 = getelementptr inbounds ptr, ptr %53, i64 %55
  %57 = load ptr, ptr %56, align 8
  store ptr %57, ptr %11, align 8
  %58 = load ptr, ptr %7, align 8
  %59 = load i32, ptr %21, align 4
  %60 = sext i32 %59 to i64
  %61 = getelementptr inbounds ptr, ptr %58, i64 %60
  %62 = load ptr, ptr %61, align 8
  store ptr %62, ptr %12, align 8
  %63 = load ptr, ptr %9, align 8
  %64 = getelementptr inbounds %struct.my_cquantizer, ptr %63, i32 0, i32 7
  %65 = getelementptr inbounds [4 x ptr], ptr %64, i64 0, i64 0
  %66 = load ptr, ptr %65, align 8
  %67 = load i32, ptr %19, align 4
  %68 = sext i32 %67 to i64
  %69 = getelementptr inbounds [16 x i32], ptr %66, i64 %68
  %70 = getelementptr inbounds [16 x i32], ptr %69, i64 0, i64 0
  store ptr %70, ptr %16, align 8
  %71 = load ptr, ptr %9, align 8
  %72 = getelementptr inbounds %struct.my_cquantizer, ptr %71, i32 0, i32 7
  %73 = getelementptr inbounds [4 x ptr], ptr %72, i64 0, i64 1
  %74 = load ptr, ptr %73, align 8
  %75 = load i32, ptr %19, align 4
  %76 = sext i32 %75 to i64
  %77 = getelementptr inbounds [16 x i32], ptr %74, i64 %76
  %78 = getelementptr inbounds [16 x i32], ptr %77, i64 0, i64 0
  store ptr %78, ptr %17, align 8
  %79 = load ptr, ptr %9, align 8
  %80 = getelementptr inbounds %struct.my_cquantizer, ptr %79, i32 0, i32 7
  %81 = getelementptr inbounds [4 x ptr], ptr %80, i64 0, i64 2
  %82 = load ptr, ptr %81, align 8
  %83 = load i32, ptr %19, align 4
  %84 = sext i32 %83 to i64
  %85 = getelementptr inbounds [16 x i32], ptr %82, i64 %84
  %86 = getelementptr inbounds [16 x i32], ptr %85, i64 0, i64 0
  store ptr %86, ptr %18, align 8
  store i32 0, ptr %20, align 4
  %87 = load i32, ptr %23, align 4
  store i32 %87, ptr %22, align 4
  br label %88

88:                                               ; preds = %148, %49
  %89 = load i32, ptr %22, align 4
  %90 = icmp ugt i32 %89, 0
  br i1 %90, label %91, label %151

91:                                               ; preds = %88
  %92 = load ptr, ptr %13, align 8
  %93 = load ptr, ptr %11, align 8
  %94 = getelementptr inbounds i8, ptr %93, i32 1
  store ptr %94, ptr %11, align 8
  %95 = load i8, ptr %93, align 1
  %96 = zext i8 %95 to i32
  %97 = load ptr, ptr %16, align 8
  %98 = load i32, ptr %20, align 4
  %99 = sext i32 %98 to i64
  %100 = getelementptr inbounds i32, ptr %97, i64 %99
  %101 = load i32, ptr %100, align 4
  %102 = add nsw i32 %96, %101
  %103 = sext i32 %102 to i64
  %104 = getelementptr inbounds i8, ptr %92, i64 %103
  %105 = load i8, ptr %104, align 1
  %106 = zext i8 %105 to i32
  store i32 %106, ptr %10, align 4
  %107 = load ptr, ptr %14, align 8
  %108 = load ptr, ptr %11, align 8
  %109 = getelementptr inbounds i8, ptr %108, i32 1
  store ptr %109, ptr %11, align 8
  %110 = load i8, ptr %108, align 1
  %111 = zext i8 %110 to i32
  %112 = load ptr, ptr %17, align 8
  %113 = load i32, ptr %20, align 4
  %114 = sext i32 %113 to i64
  %115 = getelementptr inbounds i32, ptr %112, i64 %114
  %116 = load i32, ptr %115, align 4
  %117 = add nsw i32 %111, %116
  %118 = sext i32 %117 to i64
  %119 = getelementptr inbounds i8, ptr %107, i64 %118
  %120 = load i8, ptr %119, align 1
  %121 = zext i8 %120 to i32
  %122 = load i32, ptr %10, align 4
  %123 = add nsw i32 %122, %121
  store i32 %123, ptr %10, align 4
  %124 = load ptr, ptr %15, align 8
  %125 = load ptr, ptr %11, align 8
  %126 = getelementptr inbounds i8, ptr %125, i32 1
  store ptr %126, ptr %11, align 8
  %127 = load i8, ptr %125, align 1
  %128 = zext i8 %127 to i32
  %129 = load ptr, ptr %18, align 8
  %130 = load i32, ptr %20, align 4
  %131 = sext i32 %130 to i64
  %132 = getelementptr inbounds i32, ptr %129, i64 %131
  %133 = load i32, ptr %132, align 4
  %134 = add nsw i32 %128, %133
  %135 = sext i32 %134 to i64
  %136 = getelementptr inbounds i8, ptr %124, i64 %135
  %137 = load i8, ptr %136, align 1
  %138 = zext i8 %137 to i32
  %139 = load i32, ptr %10, align 4
  %140 = add nsw i32 %139, %138
  store i32 %140, ptr %10, align 4
  %141 = load i32, ptr %10, align 4
  %142 = trunc i32 %141 to i8
  %143 = load ptr, ptr %12, align 8
  %144 = getelementptr inbounds i8, ptr %143, i32 1
  store ptr %144, ptr %12, align 8
  store i8 %142, ptr %143, align 1
  %145 = load i32, ptr %20, align 4
  %146 = add nsw i32 %145, 1
  %147 = and i32 %146, 15
  store i32 %147, ptr %20, align 4
  br label %148

148:                                              ; preds = %91
  %149 = load i32, ptr %22, align 4
  %150 = add i32 %149, -1
  store i32 %150, ptr %22, align 4
  br label %88, !llvm.loop !22

151:                                              ; preds = %88
  %152 = load i32, ptr %19, align 4
  %153 = add nsw i32 %152, 1
  %154 = and i32 %153, 15
  store i32 %154, ptr %19, align 4
  %155 = load i32, ptr %19, align 4
  %156 = load ptr, ptr %9, align 8
  %157 = getelementptr inbounds %struct.my_cquantizer, ptr %156, i32 0, i32 6
  store i32 %155, ptr %157, align 4
  br label %158

158:                                              ; preds = %151
  %159 = load i32, ptr %21, align 4
  %160 = add nsw i32 %159, 1
  store i32 %160, ptr %21, align 4
  br label %45, !llvm.loop !23

161:                                              ; preds = %45
  ret void
}